target datalayout = "e-m:e-p270:32:32-p271:32:32-p272:64:64-i64:64-i128:128-f80:128-n8:16:32:64-S128"
target triple = "x86_64-pc-linux-gnu"

@.str = private unnamed_addr constant [5 x i8] c"priv\00", align 1
@.str.1 = private unnamed_addr constant [4 x i8] c"pub\00", align 1

; Function Attrs: nounwind uwtable
define i32 @ossl_dsa_key_fromdata(ptr noundef %0, ptr noundef %1, i32 noundef %2) #0 {
  %4 = alloca i32, align 4
  %5 = alloca ptr, align 8
  %6 = alloca ptr, align 8
  %7 = alloca i32, align 4
  %8 = alloca ptr, align 8
  %9 = alloca ptr, align 8
  %10 = alloca ptr, align 8
  %11 = alloca ptr, align 8
  %12 = alloca i32, align 4
  store ptr %0, ptr %5, align 8, !tbaa !3
  store ptr %1, ptr %6, align 8, !tbaa !8
  store i32 %2, ptr %7, align 4, !tbaa !10
  call void @llvm.lifetime.start.p0(i64 8, ptr %8) #4
  store ptr null, ptr %8, align 8, !tbaa !8
  call void @llvm.lifetime.start.p0(i64 8, ptr %9) #4
  call void @llvm.lifetime.start.p0(i64 8, ptr %10) #4
  store ptr null, ptr %10, align 8, !tbaa !12
  call void @llvm.lifetime.start.p0(i64 8, ptr %11) #4
  store ptr null, ptr %11, align 8, !tbaa !12
  %13 = load ptr, ptr %5, align 8, !tbaa !3
  %14 = icmp eq ptr %13, null
  br i1 %14, label %15, label %16

15:                                               ; preds = %3
  store i32 0, ptr %4, align 4
  store i32 1, ptr %12, align 4
  br label %58

16:                                               ; preds = %3
  %17 = load i32, ptr %7, align 4, !tbaa !10
  %18 = icmp ne i32 %17, 0
  br i1 %18, label %19, label %22

19:                                               ; preds = %16
  %20 = load ptr, ptr %6, align 8, !tbaa !8
  %21 = call ptr @OSSL_PARAM_locate_const(ptr noundef %20, ptr noundef @.str)
  store ptr %21, ptr %8, align 8, !tbaa !8
  br label %22

22:                                               ; preds = %19, %16
  %23 = load ptr, ptr %6, align 8, !tbaa !8
  %24 = call ptr @OSSL_PARAM_locate_const(ptr noundef %23, ptr noundef @.str.1)
  store ptr %24, ptr %9, align 8, !tbaa !8
  %25 = load ptr, ptr %8, align 8, !tbaa !8
  %26 = icmp eq ptr %25, null
  br i1 %26, label %27, label %31

27:                                               ; preds = %22
  %28 = load ptr, ptr %9, align 8, !tbaa !8
  %29 = icmp eq ptr %28, null
  br i1 %29, label %30, label %31

30:                                               ; preds = %27
  store i32 1, ptr %4, align 4
  store i32 1, ptr %12, align 4
  br label %58

31:                                               ; preds = %27, %22
  %32 = load ptr, ptr %9, align 8, !tbaa !8
  %33 = icmp ne ptr %32, null
  br i1 %33, label %34, label %39

34:                                               ; preds = %31
  %35 = load ptr, ptr %9, align 8, !tbaa !8
  %36 = call i32 @OSSL_PARAM_get_BN(ptr noundef %35, ptr noundef %11)
  %37 = icmp ne i32 %36, 0
  br i1 %37, label %39, label %38

38:                                               ; preds = %34
  br label %55

39:                                               ; preds = %34, %31
  %40 = load ptr, ptr %8, align 8, !tbaa !8
  %41 = icmp ne ptr %40, null
  br i1 %41, label %42, label %47

42:                                               ; preds = %39
  %43 = load ptr, ptr %8, align 8, !tbaa !8
  %44 = call i32 @OSSL_PARAM_get_BN(ptr noundef %43, ptr noundef %10)
  %45 = icmp ne i32 %44, 0
  br i1 %45, label %47, label %46

46:                                               ; preds = %42
  br label %55

47:                                               ; preds = %42, %39
  %48 = load ptr, ptr %5, align 8, !tbaa !3
  %49 = load ptr, ptr %11, align 8, !tbaa !12
  %50 = load ptr, ptr %10, align 8, !tbaa !12
  %51 = call i32 @DSA_set0_key(ptr noundef %48, ptr noundef %49, ptr noundef %50)
  %52 = icmp ne i32 %51, 0
  br i1 %52, label %54, label %53

53:                                               ; preds = %47
  br label %55

54:                                               ; preds = %47
  store i32 1, ptr %4, align 4
  store i32 1, ptr %12, align 4
  br label %58

55:                                               ; preds = %53, %46, %38
  %56 = load ptr, ptr %10, align 8, !tbaa !12
  call void @BN_clear_free(ptr noundef %56)
  %57 = load ptr, ptr %11, align 8, !tbaa !12
  call void @BN_free(ptr noundef %57)
  store i32 0, ptr %4, align 4
  store i32 1, ptr %12, align 4
  br label %58

58:                                               ; preds = %55, %54, %30, %15
  call void @llvm.lifetime.end.p0(i64 8, ptr %11) #4
  call void @llvm.lifetime.end.p0(i64 8, ptr %10) #4
  call void @llvm.lifetime.end.p0(i64 8, ptr %9) #4
  call void @llvm.lifetime.end.p0(i64 8, ptr %8) #4
  %59 = load i32, ptr %4, align 4
  ret i32 %59
}