; Function Attrs: nounwind uwtable
define range(i32 0, 2) i32 @ossl_dsa_key_fromdata(ptr noundef %0, ptr noundef %1, i32 noundef %2) local_unnamed_addr #0 {
  %4 = alloca ptr, align 8
  %5 = alloca ptr, align 8
  call void @llvm.lifetime.start.p0(i64 8, ptr nonnull %4) #3
  store ptr null, ptr %4, align 8, !tbaa !3
  call void @llvm.lifetime.start.p0(i64 8, ptr nonnull %5) #3
  store ptr null, ptr %5, align 8, !tbaa !3
  %6 = icmp eq ptr %0, null
  br i1 %6, label %26, label %7

7:                                                ; preds = %3
  %.not = icmp eq i32 %2, 0
  br i1 %.not, label %10, label %8

8:                                                ; preds = %7
  %9 = tail call ptr @OSSL_PARAM_locate_const(ptr noundef %1, ptr noundef nonnull @.str) #3
  br label %10

10:                                               ; preds = %8, %7
  %.012 = phi ptr [ %9, %8 ], [ null, %7 ]
  %11 = tail call ptr @OSSL_PARAM_locate_const(ptr noundef %1, ptr noundef nonnull @.str.1) #3
  %12 = icmp eq ptr %.012, null
  %13 = icmp eq ptr %11, null
  %or.cond = select i1 %12, i1 %13, i1 false
  br i1 %or.cond, label %26, label %14

14:                                               ; preds = %10
  br i1 %13, label %17, label %15

15:                                               ; preds = %14
  %16 = call i32 @OSSL_PARAM_get_BN(ptr noundef nonnull %11, ptr noundef nonnull %5) #3
  %.not16 = icmp eq i32 %16, 0
  br i1 %.not16, label %23, label %17

17:                                               ; preds = %15, %14
  br i1 %12, label %._crit_edge, label %18

18:                                               ; preds = %17
  %19 = call i32 @OSSL_PARAM_get_BN(ptr noundef nonnull %.012, ptr noundef nonnull %4) #3
  %.not18 = icmp eq i32 %19, 0
  %.pre22 = load ptr, ptr %4, align 8, !tbaa !3
  br i1 %.not18, label %23, label %._crit_edge

._crit_edge:                                      ; preds = %18, %17
  %20 = phi ptr [ null, %17 ], [ %.pre22, %18 ]
  %21 = load ptr, ptr %5, align 8, !tbaa !3
  %22 = call i32 @DSA_set0_key(ptr noundef nonnull %0, ptr noundef %21, ptr noundef %20) #3
  %.not19 = icmp eq i32 %22, 0
  br i1 %.not19, label %._crit_edge20, label %26

._crit_edge20:                                    ; preds = %._crit_edge
  %.pre21 = load ptr, ptr %4, align 8, !tbaa !3
  br label %23

23:                                               ; preds = %._crit_edge20, %18, %15
  %24 = phi ptr [ %.pre21, %._crit_edge20 ], [ %.pre22, %18 ], [ null, %15 ]
  call void @BN_clear_free(ptr noundef %24) #3
  %25 = load ptr, ptr %5, align 8, !tbaa !3
  call void @BN_free(ptr noundef %25) #3
  br label %26

26:                                               ; preds = %._crit_edge, %10, %3, %23
  %.0 = phi i32 [ 0, %23 ], [ 0, %3 ], [ 1, %10 ], [ 1, %._crit_edge ]
  call void @llvm.lifetime.end.p0(i64 8, ptr nonnull %5) #3
  call void @llvm.lifetime.end.p0(i64 8, ptr nonnull %4) #3
  ret i32 %.0
}